; Function Attrs: mustprogress null_pointer_is_valid sspstrong uwtable
define void @_ZN23ProtocolHierarchyDialog21filterActionTriggeredEv(ptr noundef align 8 dereferenceable_or_null(256) %0) local_unnamed_addr #0 align 2 personality ptr @__gxx_personality_v0 {
  %2 = alloca %class.QString, align 8
  %3 = getelementptr inbounds nuw i8, ptr %0, i64 144
  %4 = load ptr, ptr %3, align 8
  %5 = getelementptr inbounds nuw i8, ptr %4, i64 48
  %6 = load ptr, ptr %5, align 8
  %7 = tail call noundef ptr @_ZNK11QTreeWidget11currentItemEv(ptr noundef align 8 dereferenceable_or_null(40) %6)
  %8 = tail call noundef ptr @_ZNK7QObject6senderEv(ptr noundef align 8 dereferenceable_or_null(16) %0)
  %9 = tail call noundef ptr @_ZNK11QMetaObject4castEPK7QObject(ptr noundef nonnull align 8 dereferenceable_or_null(56) @_ZN12FilterAction16staticMetaObjectE, ptr noundef %8)
  %10 = icmp ne ptr %9, null
  %11 = icmp ne ptr %7, null
  %or.cond = and i1 %11, %10
  br i1 %or.cond, label %12, label %_ZN7QStringD2Ev.exit13

12:                                               ; preds = %1
  %13 = getelementptr inbounds nuw i8, ptr %7, i64 96
  %14 = load ptr, ptr %13, align 8, !noalias !59
  %15 = getelementptr inbounds nuw i8, ptr %7, i64 104
  %16 = load ptr, ptr %15, align 8, !noalias !59
  %17 = getelementptr inbounds nuw i8, ptr %7, i64 112
  %18 = load i64, ptr %17, align 8, !noalias !59
  %.not.i.i.i.i = icmp eq ptr %14, null
  br i1 %.not.i.i.i.i, label %_ZN31ProtocolHierarchyTreeWidgetItem10filterNameEv.exit.thread, label %21

_ZN31ProtocolHierarchyTreeWidgetItem10filterNameEv.exit.thread: ; preds = %12
  store ptr null, ptr %2, align 8
  %19 = getelementptr inbounds nuw i8, ptr %2, i64 8
  store ptr %16, ptr %19, align 8
  %20 = getelementptr inbounds nuw i8, ptr %2, i64 16
  store i64 %18, ptr %20, align 8
  br label %_ZN7QStringC2ERKS_.exit

21:                                               ; preds = %12
  %22 = atomicrmw add ptr %14, i32 1 seq_cst, align 4, !noalias !59
  store ptr %14, ptr %2, align 8
  %23 = getelementptr inbounds nuw i8, ptr %2, i64 8
  store ptr %16, ptr %23, align 8
  %24 = getelementptr inbounds nuw i8, ptr %2, i64 16
  store i64 %18, ptr %24, align 8
  %25 = atomicrmw add ptr %14, i32 1 seq_cst, align 4
  br label %_ZN7QStringC2ERKS_.exit

_ZN7QStringC2ERKS_.exit:                          ; preds = %_ZN31ProtocolHierarchyTreeWidgetItem10filterNameEv.exit.thread, %21
  %26 = getelementptr inbounds nuw i8, ptr %9, i64 16
  %27 = load i32, ptr %26, align 8
  %28 = getelementptr inbounds nuw i8, ptr %9, i64 20
  %29 = load i32, ptr %28, align 4
  invoke void @_ZN23ProtocolHierarchyDialog12filterActionE7QStringN12FilterAction6ActionENS1_10ActionTypeE(ptr noundef align 8 dereferenceable_or_null(256) %0, ptr noundef nonnull %2, i32 noundef %27, i32 noundef %29)
          to label %30 unwind label %37

30:                                               ; preds = %_ZN7QStringC2ERKS_.exit
  %31 = load ptr, ptr %2, align 8
  %.not.i.i.i9 = icmp eq ptr %31, null
  br i1 %.not.i.i.i9, label %_ZN7QStringD2Ev.exit, label %_ZN17QArrayDataPointerIDsE5derefEv.exit.i.i

_ZN17QArrayDataPointerIDsE5derefEv.exit.i.i:      ; preds = %30
  %32 = atomicrmw sub ptr %31, i32 1 seq_cst, align 4
  %.not.i.i = icmp eq i32 %32, 1
  br i1 %.not.i.i, label %33, label %_ZN7QStringD2Ev.exit

33:                                               ; preds = %_ZN17QArrayDataPointerIDsE5derefEv.exit.i.i
  %34 = load ptr, ptr %2, align 8
  call void @_ZN10QArrayData10deallocateEPS_xx(ptr noundef %34, i64 noundef 2, i64 noundef 8) #27
  br label %_ZN7QStringD2Ev.exit

_ZN7QStringD2Ev.exit:                             ; preds = %30, %_ZN17QArrayDataPointerIDsE5derefEv.exit.i.i, %33
  br i1 %.not.i.i.i.i, label %_ZN7QStringD2Ev.exit13, label %_ZN17QArrayDataPointerIDsE5derefEv.exit.i.i11

_ZN17QArrayDataPointerIDsE5derefEv.exit.i.i11:    ; preds = %_ZN7QStringD2Ev.exit
  %35 = atomicrmw sub ptr %14, i32 1 seq_cst, align 4
  %.not.i.i12 = icmp eq i32 %35, 1
  br i1 %.not.i.i12, label %36, label %_ZN7QStringD2Ev.exit13

36:                                               ; preds = %_ZN17QArrayDataPointerIDsE5derefEv.exit.i.i11
  call void @_ZN10QArrayData10deallocateEPS_xx(ptr noundef nonnull %14, i64 noundef 2, i64 noundef 8) #27
  br label %_ZN7QStringD2Ev.exit13

_ZN7QStringD2Ev.exit13:                           ; preds = %36, %_ZN17QArrayDataPointerIDsE5derefEv.exit.i.i11, %_ZN7QStringD2Ev.exit, %1
  ret void

37:                                               ; preds = %_ZN7QStringC2ERKS_.exit
  %38 = landingpad { ptr, i32 }
          cleanup
  %39 = load ptr, ptr %2, align 8
  %.not.i.i.i14 = icmp eq ptr %39, null
  br i1 %.not.i.i.i14, label %_ZN7QStringD2Ev.exit17, label %_ZN17QArrayDataPointerIDsE5derefEv.exit.i.i15

_ZN17QArrayDataPointerIDsE5derefEv.exit.i.i15:    ; preds = %37
  %40 = atomicrmw sub ptr %39, i32 1 seq_cst, align 4
  %.not.i.i16 = icmp eq i32 %40, 1
  br i1 %.not.i.i16, label %41, label %_ZN7QStringD2Ev.exit17

41:                                               ; preds = %_ZN17QArrayDataPointerIDsE5derefEv.exit.i.i15
  %42 = load ptr, ptr %2, align 8
  call void @_ZN10QArrayData10deallocateEPS_xx(ptr noundef %42, i64 noundef 2, i64 noundef 8) #27
  br label %_ZN7QStringD2Ev.exit17

_ZN7QStringD2Ev.exit17:                           ; preds = %37, %_ZN17QArrayDataPointerIDsE5derefEv.exit.i.i15, %41
  br i1 %.not.i.i.i.i, label %_ZN7QStringD2Ev.exit21, label %_ZN17QArrayDataPointerIDsE5derefEv.exit.i.i19

_ZN17QArrayDataPointerIDsE5derefEv.exit.i.i19:    ; preds = %_ZN7QStringD2Ev.exit17
  %43 = atomicrmw sub ptr %14, i32 1 seq_cst, align 4
  %.not.i.i20 = icmp eq i32 %43, 1
  br i1 %.not.i.i20, label %44, label %_ZN7QStringD2Ev.exit21

44:                                               ; preds = %_ZN17QArrayDataPointerIDsE5derefEv.exit.i.i19
  call void @_ZN10QArrayData10deallocateEPS_xx(ptr noundef nonnull %14, i64 noundef 2, i64 noundef 8) #27
  br label %_ZN7QStringD2Ev.exit21

_ZN7QStringD2Ev.exit21:                           ; preds = %_ZN7QStringD2Ev.exit17, %_ZN17QArrayDataPointerIDsE5derefEv.exit.i.i19, %44
  resume { ptr, i32 } %38
}